; ModuleID = 'bench/folly/original/Malloc.ll'
source_filename = "bench/folly/original/Malloc.ll"
target datalayout = "e-m:e-p270:32:32-p271:32:32-p272:64:64-i64:64-i128:128-f80:128-n8:16:32:64-S128"
target triple = "x86_64-pc-linux-gnu"

; Function Attrs: mustprogress noinline uwtable
define ptr @folly_coro_async_malloc(i64 noundef %0) local_unnamed_addr #0 personality ptr @__gxx_personality_v0 {
  %2 = alloca ptr, align 8
  call void @llvm.lifetime.start.p0(i64 8, ptr nonnull %2) #5
  %3 = tail call noalias noundef nonnull ptr @_Znwm(i64 noundef %0) #6
  store ptr %3, ptr %2, align 8, !tbaa !7
  call void asm sideeffect "", "*m,~{memory},~{dirflag},~{fpsr},~{flags}"(ptr nonnull elementtype(ptr) align 8 dereferenceable(8) %2) #5, !srcloc !11
  %4 = load ptr, ptr %2, align 8, !tbaa !7
  call void @llvm.lifetime.end.p0(i64 8, ptr nonnull %2) #5
  ret ptr %4
}

; Function Attrs: mustprogress nocallback nofree nosync nounwind willreturn memory(argmem: readwrite)
declare void @llvm.lifetime.start.p0(i64 immarg, ptr captures(none)) #1

; Function Attrs: mustprogress nocallback nofree nosync nounwind willreturn memory(argmem: readwrite)
declare void @llvm.lifetime.end.p0(i64 immarg, ptr captures(none)) #1

; Function Attrs: nobuiltin allocsize(0)
declare noundef nonnull ptr @_Znwm(i64 noundef) local_unnamed_addr #2

declare i32 @__gxx_personality_v0(...)

; Function Attrs: mustprogress noinline nounwind uwtable
define void @folly_coro_async_free(ptr noundef %0, i64 noundef %1) local_unnamed_addr #3 personality ptr @__gxx_personality_v0 {
  tail call void @_ZdlPvm(ptr noundef %0, i64 noundef %1) #5
  tail call void asm sideeffect "", "r,~{dirflag},~{fpsr},~{flags}"(i64 %1) #5, !srcloc !12
  ret void
}

; Function Attrs: nobuiltin nounwind
declare void @_ZdlPvm(ptr noundef, i64 noundef) local_unnamed_addr #4


!llvm.module.flags = !{!0, !1, !2, !3, !4, !5, !6}

!0 = !{i32 7, !"Dwarf Version", i32 5}
!1 = !{i32 2, !"Debug Info Version", i32 3}
!2 = !{i32 1, !"wchar_size", i32 4}
!3 = !{i32 7, !"openmp", i32 51}
!4 = !{i32 8, !"PIC Level", i32 2}
!5 = !{i32 7, !"uwtable", i32 2}
!6 = !{i32 7, !"debug-info-assignment-tracking", i1 true}
!7 = !{!8, !8, i64 0}
!8 = !{!"any pointer", !9, i64 0}
!9 = !{!"omnipotent char", !10, i64 0}
!10 = !{!"Simple C++ TBAA"}
!11 = !{i64 2754207}
!12 = !{i64 2753821}
